Certificate:
    Data:
        Version: 3 (0x2)
        Serial Number: 1 (0x1)
    Signature Algorithm: sha256WithRSAEncryption
        Issuer: CN=OpenConext Demo CA, O=OpenConext, C=NL
        Validity
            Not Before: Nov  9 19:00:53 2016 GMT
            Not After : Nov  9 19:00:53 2019 GMT
        Subject: C=NL, O=OpenConext, CN=*.example.com
        Subject Public Key Info:
            Public Key Algorithm: rsaEncryption
                Public-Key: (2048 bit)
                Modulus:
                    00:b9:d7:fb:e6:b9:95:54:cd:ad:d2:15:26:64:10:
                    bd:b9:82:f9:f5:d5:25:d1:e5:a7:1d:bd:7c:17:0e:
                    39:31:7e:78:89:35:e4:46:69:a8:af:0e:80:cb:62:
                    ce:c0:f5:c9:30:39:83:fe:b9:61:48:7f:38:12:33:
                    ae:c3:bf:f0:92:9f:fd:f4:25:cc:81:34:a5:fb:0d:
                    3d:f7:07:08:8c:36:f7:af:6f:09:c2:23:91:01:bd:
                    96:c0:7e:e0:a8:90:0b:f5:35:a0:54:1f:10:7c:ff:
                    fd:d8:a1:1d:b8:9a:a4:ed:c5:ed:f2:14:a2:4c:94:
                    6c:fd:93:f6:f5:20:34:f0:bd:0d:36:34:c0:03:bb:
                    dc:c8:c2:21:25:b1:78:da:55:2c:50:a4:76:6c:18:
                    91:b4:5a:cc:00:37:1b:63:1c:33:cf:24:54:e1:2d:
                    43:fa:7c:18:99:36:c2:b5:7a:fe:eb:8f:90:6e:2b:
                    dd:e2:35:39:9b:17:9c:66:7a:6d:2e:62:e8:b3:ed:
                    2a:0c:47:ba:5f:0e:46:5b:f5:6a:2d:99:d5:fb:3e:
                    dd:b6:32:2d:4d:58:e0:4e:a0:b6:67:e6:00:f7:8c:
                    a3:a1:3b:76:0e:52:d7:3f:40:d0:5e:72:50:61:76:
                    07:12:95:d7:2d:de:72:de:be:b8:01:5f:f3:e3:17:
                    2c:eb
                Exponent: 65537 (0x10001)
        X509v3 extensions:
            X509v3 Subject Key Identifier: 
                7A:EA:EC:ED:88:AF:77:15:DD:28:0A:CC:CA:AC:54:88:99:E4:C6:02
            X509v3 Authority Key Identifier: 
                keyid:31:92:4D:95:38:3E:9A:41:20:5C:0C:94:A8:1D:B8:D8:DF:B5:10:23
                DirName:/CN=OpenConext Demo CA/O=OpenConext/C=NL
                serial:00

            X509v3 Basic Constraints: critical
                CA:FALSE, pathlen:0
            X509v3 Key Usage: critical
                Digital Signature, Key Encipherment
            X509v3 Extended Key Usage: critical
                TLS Web Server Authentication
    Signature Algorithm: sha256WithRSAEncryption
         99:93:af:c3:1f:ad:6c:e8:4b:81:35:49:43:d6:ad:95:fa:8d:
         98:f8:35:c4:3e:36:1e:7b:77:85:03:1a:e6:c9:5f:bd:a5:e3:
         e6:7a:21:b5:ce:79:a0:04:84:34:bb:7b:6c:7c:d0:f1:38:50:
         9d:db:46:73:cf:4a:64:d1:ce:56:16:d7:6d:42:b3:17:70:03:
         30:08:bd:8f:be:b2:3e:48:c5:e0:d2:a0:9d:c6:91:c6:d3:f1:
         f7:8c:e4:df:22:4d:79:26:25:28:dc:1f:16:c7:5e:81:7f:cc:
         9f:d8:6c:0c:c0:00:dc:f0:52:4d:e2:7e:6d:64:b4:27:21:1d:
         b5:48:e8:2b:89:9f:5c:40:96:ad:d6:13:34:92:4b:fb:40:f3:
         e2:72:a0:34:ca:e1:1a:b6:f5:81:1a:6d:ec:8e:5f:99:79:b2:
         95:5a:0c:22:74:a6:7b:0a:92:d1:89:41:a0:30:d4:8e:d9:30:
         5b:66:5a:5e:d6:fa:b5:f9:ac:a1:2b:e5:03:40:b1:ce:04:ad:
         97:ed:12:1b:01:e0:24:da:de:6e:e2:d2:9a:ec:4b:bb:52:ef:
         5c:4f:1a:8b:b1:55:97:50:68:18:43:bc:8d:ae:0a:e1:b4:81:
         4c:92:9f:06:52:28:de:4d:b6:79:9e:02:74:92:4e:cf:11:f3:
         85:25:5d:26:cb:ba:73:17:01:07:75:40:ab:46:f7:e2:f2:15:
         bf:b7:4f:77:e8:04:53:25:6f:24:ec:98:01:60:2e:ab:dc:d3:
         bb:95:87:ed:8e:14:38:1f:aa:6b:6d:f1:39:db:91:bc:b6:4d:
         75:a8:46:e3:0d:6d:ec:a2:1a:71:2f:b3:c8:95:71:d4:0e:66:
         30:6a:e6:d9:30:d1:36:1a:c1:eb:b2:d7:c3:f2:13:08:7a:dd:
         7b:b1:4c:00:92:af:fd:3c:69:3c:1a:d2:94:4c:8f:31:0e:84:
         98:03:67:69:9c:aa:d7:93:c7:f3:c6:76:41:f5:4d:23:0c:66:
         42:c3:80:29:c3:d9:f8:46:1f:47:c8:16:d0:1e:43:98:03:5b:
         99:02:12:95:2e:30:b2:57:ff:d7:22:81:3c:e7:e8:41:99:a9:
         91:10:74:71:f6:e8:24:37:21:d7:69:61:b2:4e:2b:c4:a2:dd:
         96:71:20:d4:d8:b7:b6:df:26:a4:ac:c0:c8:fb:7e:a2:d0:47:
         0f:d4:d1:37:ee:8d:ca:68:5f:00:8b:ac:e4:67:ec:42:a0:41:
         b5:01:48:4c:4f:2e:eb:3e:98:8a:e5:8e:d2:16:41:ed:63:4f:
         cc:f9:39:a5:89:29:12:c0:fe:c8:29:67:f2:db:69:49:d9:d6:
         ec:ff:c0:23:da:1c:61:76
-----BEGIN CERTIFICATE-----
MIIEuTCCAqGgAwIBAgIBATANBgkqhkiG9w0BAQsFADA/MRswGQYDVQQDDBJPcGVu
Q29uZXh0IERlbW8gQ0ExEzARBgNVBAoMCk9wZW5Db25leHQxCzAJBgNVBAYTAk5M
MB4XDTE2MTEwOTE5MDA1M1oXDTE5MTEwOTE5MDA1M1owOjELMAkGA1UEBhMCTkwx
EzARBgNVBAoMCk9wZW5Db25leHQxFjAUBgNVBAMMDSouZXhhbXBsZS5jb20wggEi
MA0GCSqGSIb3DQEBAQUAA4IBDwAwggEKAoIBAQC51/vmuZVUza3SFSZkEL25gvn1
1SXR5acdvXwXDjkxfniJNeRGaaivDoDLYs7A9ckwOYP+uWFIfzgSM67Dv/CSn/30
JcyBNKX7DT33BwiMNvevbwnCI5EBvZbAfuCokAv1NaBUHxB8//3YoR24mqTtxe3y
FKJMlGz9k/b1IDTwvQ02NMADu9zIwiElsXjaVSxQpHZsGJG0WswANxtjHDPPJFTh
LUP6fBiZNsK1ev7rj5BuK93iNTmbF5xmem0uYuiz7SoMR7pfDkZb9WotmdX7Pt22
Mi1NWOBOoLZn5gD3jKOhO3YOUtc/QNBeclBhdgcSldct3nLevrgBX/PjFyzrAgMB
AAGjgcQwgcEwHQYDVR0OBBYEFHrq7O2Ir3cV3SgKzMqsVIiZ5MYCMGcGA1UdIwRg
MF6AFDGSTZU4PppBIFwMlKgduNjftRAjoUOkQTA/MRswGQYDVQQDDBJPcGVuQ29u
ZXh0IERlbW8gQ0ExEzARBgNVBAoMCk9wZW5Db25leHQxCzAJBgNVBAYTAk5MggEA
MA8GA1UdEwEB/wQFMAMCAQAwDgYDVR0PAQH/BAQDAgWgMBYGA1UdJQEB/wQMMAoG
CCsGAQUFBwMBMA0GCSqGSIb3DQEBCwUAA4ICAQCZk6/DH61s6EuBNUlD1q2V+o2Y
+DXEPjYee3eFAxrmyV+9pePmeiG1znmgBIQ0u3tsfNDxOFCd20Zzz0pk0c5WFtdt
QrMXcAMwCL2PvrI+SMXg0qCdxpHG0/H3jOTfIk15JiUo3B8Wx16Bf8yf2GwMwADc
8FJN4n5tZLQnIR21SOgriZ9cQJat1hM0kkv7QPPicqA0yuEatvWBGm3sjl+ZebKV
WgwidKZ7CpLRiUGgMNSO2TBbZlpe1vq1+ayhK+UDQLHOBK2X7RIbAeAk2t5u4tKa
7Eu7Uu9cTxqLsVWXUGgYQ7yNrgrhtIFMkp8GUijeTbZ5ngJ0kk7PEfOFJV0my7pz
FwEHdUCrRvfi8hW/t0936ARTJW8k7JgBYC6r3NO7lYftjhQ4H6prbfE525G8tk11
qEbjDW3sohpxL7PIlXHUDmYwaubZMNE2GsHrstfD8hMIet17sUwAkq/9PGk8GtKU
TI8xDoSYA2dpnKrXk8fzxnZB9U0jDGZCw4Apw9n4Rh9HyBbQHkOYA1uZAhKVLjCy
V//XIoE85+hBmamREHRx9ugkNyHXaWGyTivEot2WcSDU2Le23yakrMDI+36i0EcP
1NE37o3KaF8Ai6zkZ+xCoEG1AUhMTy7rPpiK5Y7SFkHtY0/M+TmliSkSwP7IKWfy
22lJ2dbs/8Aj2hxhdg==
-----END CERTIFICATE-----
